target datalayout = "e-m:e-p270:32:32-p271:32:32-p272:64:64-i64:64-i128:128-f80:128-n8:16:32:64-S128"
target triple = "x86_64-unknown-linux-gnu"

%"class.rocksdb::Slice" = type { ptr, i64 }
%"class.rocksdb::InternalKeyComparator" = type { %"class.rocksdb::CompareInterface", %"class.rocksdb::UserComparatorWrapper" }
%"class.rocksdb::CompareInterface" = type { ptr }
%"class.rocksdb::UserComparatorWrapper" = type { ptr }
%"class.rocksdb::PlainTableReader" = type { %"class.rocksdb::TableReader", %"class.rocksdb::InternalKeyComparator", i8, %"class.rocksdb::Status", %"class.rocksdb::PlainTableIndex", i8, i32, i32, ptr, i8, %"class.rocksdb::PlainTableBloomV1", %"struct.rocksdb::PlainTableReaderFileInfo", %"class.rocksdb::Arena", %"class.std::unique_ptr.19", %"class.std::unique_ptr.19", ptr, %"class.std::unique_ptr.27", i64, %"class.std::shared_ptr", [8 x i8] }
%"class.rocksdb::TableReader" = type { ptr }
%"class.rocksdb::Status" = type { i8, i8, i8, i8, i8, i8, %"class.std::unique_ptr" }
%"class.std::unique_ptr" = type { %"struct.std::__uniq_ptr_data" }
%"struct.std::__uniq_ptr_data" = type { %"class.std::__uniq_ptr_impl" }
%"class.std::__uniq_ptr_impl" = type { %"class.std::tuple" }
%"class.std::tuple" = type { %"struct.std::_Tuple_impl" }
%"struct.std::_Tuple_impl" = type { %"struct.std::_Head_base.1" }
%"struct.std::_Head_base.1" = type { ptr }
%"class.rocksdb::PlainTableIndex" = type { i32, i32, i32, ptr, ptr }
%"class.rocksdb::PlainTableBloomV1" = type { i32, i32, i32, ptr }
%"struct.rocksdb::PlainTableReaderFileInfo" = type { i8, %"class.rocksdb::Slice", i32, %"class.std::unique_ptr.2" }
%"class.std::unique_ptr.2" = type { %"struct.std::__uniq_ptr_data.3" }
%"struct.std::__uniq_ptr_data.3" = type { %"class.std::__uniq_ptr_impl.4" }
%"class.std::__uniq_ptr_impl.4" = type { %"class.std::tuple.5" }
%"class.std::tuple.5" = type { %"struct.std::_Tuple_impl.6" }
%"struct.std::_Tuple_impl.6" = type { %"struct.std::_Head_base.9" }
%"struct.std::_Head_base.9" = type { ptr }
%"class.rocksdb::Arena" = type { %"class.rocksdb::Allocator", [8 x i8], [2048 x i8], i64, %"class.std::deque", %"class.std::deque.13", i64, ptr, ptr, i64, i64, i64, ptr }
%"class.rocksdb::Allocator" = type { ptr }
%"class.std::deque" = type { %"class.std::_Deque_base" }
%"class.std::_Deque_base" = type { %"struct.std::_Deque_base<std::unique_ptr<char[]>, std::allocator<std::unique_ptr<char[]>>>::_Deque_impl" }
%"struct.std::_Deque_base<std::unique_ptr<char[]>, std::allocator<std::unique_ptr<char[]>>>::_Deque_impl" = type { %"struct.std::_Deque_base<std::unique_ptr<char[]>, std::allocator<std::unique_ptr<char[]>>>::_Deque_impl_data" }
%"struct.std::_Deque_base<std::unique_ptr<char[]>, std::allocator<std::unique_ptr<char[]>>>::_Deque_impl_data" = type { ptr, i64, %"struct.std::_Deque_iterator", %"struct.std::_Deque_iterator" }
%"struct.std::_Deque_iterator" = type { ptr, ptr, ptr, ptr }
%"class.std::deque.13" = type { %"class.std::_Deque_base.14" }
%"class.std::_Deque_base.14" = type { %"struct.std::_Deque_base<rocksdb::MemMapping, std::allocator<rocksdb::MemMapping>>::_Deque_impl" }
%"struct.std::_Deque_base<rocksdb::MemMapping, std::allocator<rocksdb::MemMapping>>::_Deque_impl" = type { %"struct.std::_Deque_base<rocksdb::MemMapping, std::allocator<rocksdb::MemMapping>>::_Deque_impl_data" }
%"struct.std::_Deque_base<rocksdb::MemMapping, std::allocator<rocksdb::MemMapping>>::_Deque_impl_data" = type { ptr, i64, %"struct.std::_Deque_iterator.18", %"struct.std::_Deque_iterator.18" }
%"struct.std::_Deque_iterator.18" = type { ptr, ptr, ptr, ptr }
%"class.std::unique_ptr.19" = type { %"struct.std::__uniq_ptr_data.20" }
%"struct.std::__uniq_ptr_data.20" = type { %"class.std::__uniq_ptr_impl.21" }
%"class.std::__uniq_ptr_impl.21" = type { %"class.std::tuple.22" }
%"class.std::tuple.22" = type { %"struct.std::_Tuple_impl.23" }
%"struct.std::_Tuple_impl.23" = type { %"struct.std::_Tuple_impl.24", %"struct.std::_Head_base.26" }
%"struct.std::_Tuple_impl.24" = type { %"struct.std::_Head_base.25" }
%"struct.std::_Head_base.25" = type { %"struct.rocksdb::CustomDeleter" }
%"struct.rocksdb::CustomDeleter" = type { ptr }
%"struct.std::_Head_base.26" = type { ptr }
%"class.std::unique_ptr.27" = type { %"struct.std::__uniq_ptr_data.28" }
%"struct.std::__uniq_ptr_data.28" = type { %"class.std::__uniq_ptr_impl.29" }
%"class.std::__uniq_ptr_impl.29" = type { %"class.std::tuple.30" }
%"class.std::tuple.30" = type { %"struct.std::_Tuple_impl.31" }
%"struct.std::_Tuple_impl.31" = type { %"struct.std::_Head_base.34" }
%"struct.std::_Head_base.34" = type { ptr }
%"class.std::shared_ptr" = type { %"class.std::__shared_ptr" }
%"class.std::__shared_ptr" = type { ptr, %"class.std::__shared_count" }
%"class.std::__shared_count" = type { ptr }

@.str.15 = private unnamed_addr constant [1 x i8] zeroinitializer, align 1

; Function Attrs: mustprogress nounwind uwtable
define linkonce_odr noundef i32 @_ZN7rocksdb23LegacyLocalityBloomImplILb1EE7GetLineEjj(i32 noundef %h, i32 noundef %num_lines) #1 comdat align 2 {
entry:
  %h.addr = alloca i32, align 4
  %num_lines.addr = alloca i32, align 4
  %offset_h = alloca i32, align 4
  store i32 %h, ptr %h.addr, align 4
  store i32 %num_lines, ptr %num_lines.addr, align 4
  %0 = load i32, ptr %h.addr, align 4
  %shr = lshr i32 %0, 11
  %1 = load i32, ptr %h.addr, align 4
  %shl = shl i32 %1, 21
  %or = or i32 %shr, %shl
  store i32 %or, ptr %offset_h, align 4
  %2 = load i32, ptr %offset_h, align 4
  %3 = load i32, ptr %num_lines.addr, align 4
  %rem = urem i32 %2, %3
  ret i32 %rem
}

; Function Attrs: mustprogress nounwind uwtable
define linkonce_odr void @_ZN7rocksdb5SliceC2Ev(ptr noundef nonnull align 8 dereferenceable(16) %this) unnamed_addr #1 comdat align 2 {
entry:
  %this.addr = alloca ptr, align 8
  store ptr %this, ptr %this.addr, align 8
  %this1 = load ptr, ptr %this.addr, align 8
  %data_ = getelementptr inbounds %"class.rocksdb::Slice", ptr %this1, i32 0, i32 0
  store ptr @.str.15, ptr %data_, align 8
  %size_ = getelementptr inbounds %"class.rocksdb::Slice", ptr %this1, i32 0, i32 1
  store i64 0, ptr %size_, align 8
  ret void
}

; Function Attrs: mustprogress nounwind uwtable
define linkonce_odr noundef zeroext i1 @_ZNK7rocksdb16PlainTableReader16IsTotalOrderModeEv(ptr noundef nonnull align 16 dereferenceable(2536) %this) #1 comdat align 2 {
entry:
  %this.addr = alloca ptr, align 8
  store ptr %this, ptr %this.addr, align 8
  %this1 = load ptr, ptr %this.addr, align 8
  %prefix_extractor_ = getelementptr inbounds %"class.rocksdb::PlainTableReader", ptr %this1, i32 0, i32 8
  %0 = load ptr, ptr %prefix_extractor_, align 16
  %cmp = icmp eq ptr %0, null
  ret i1 %cmp
}

; Function Attrs: mustprogress nounwind uwtable
define linkonce_odr void @_ZN7rocksdb5SliceC2EPKcm(ptr noundef nonnull align 8 dereferenceable(16) %this, ptr noundef %d, i64 noundef %n) unnamed_addr #1 comdat align 2 {
entry:
  %this.addr = alloca ptr, align 8
  %d.addr = alloca ptr, align 8
  %n.addr = alloca i64, align 8
  store ptr %this, ptr %this.addr, align 8
  store ptr %d, ptr %d.addr, align 8
  store i64 %n, ptr %n.addr, align 8
  %this1 = load ptr, ptr %this.addr, align 8
  %data_ = getelementptr inbounds %"class.rocksdb::Slice", ptr %this1, i32 0, i32 0
  %0 = load ptr, ptr %d.addr, align 8
  store ptr %0, ptr %data_, align 8
  %size_ = getelementptr inbounds %"class.rocksdb::Slice", ptr %this1, i32 0, i32 1
  %1 = load i64, ptr %n.addr, align 8
  store i64 %1, ptr %size_, align 8
  ret void
}

; Function Attrs: mustprogress nounwind uwtable
define linkonce_odr void @_ZN7rocksdb23LegacyLocalityBloomImplILb1EE19PrepareHashMayMatchEjjPKcPji(i32 noundef %h, i32 noundef %num_lines, ptr noundef %data, ptr noundef %byte_offset, i32 noundef %log2_cache_line_bytes) #1 comdat align 2 {
entry:
  %h.addr = alloca i32, align 4
  %num_lines.addr = alloca i32, align 4
  %data.addr = alloca ptr, align 8
  %byte_offset.addr = alloca ptr, align 8
  %log2_cache_line_bytes.addr = alloca i32, align 4
  %b = alloca i32, align 4
  store i32 %h, ptr %h.addr, align 4
  store i32 %num_lines, ptr %num_lines.addr, align 4
  store ptr %data, ptr %data.addr, align 8
  store ptr %byte_offset, ptr %byte_offset.addr, align 8
  store i32 %log2_cache_line_bytes, ptr %log2_cache_line_bytes.addr, align 4
  %0 = load i32, ptr %h.addr, align 4
  %1 = load i32, ptr %num_lines.addr, align 4
  %call = call noundef i32 @_ZN7rocksdb23LegacyLocalityBloomImplILb1EE7GetLineEjj(i32 noundef %0, i32 noundef %1)
  %2 = load i32, ptr %log2_cache_line_bytes.addr, align 4
  %shl = shl i32 %call, %2
  store i32 %shl, ptr %b, align 4
  %3 = load ptr, ptr %data.addr, align 8
  %4 = load i32, ptr %b, align 4
  %idx.ext = zext i32 %4 to i64
  %add.ptr = getelementptr inbounds i8, ptr %3, i64 %idx.ext
  call void @llvm.prefetch.p0(ptr %add.ptr, i32 0, i32 1, i32 1)
  %5 = load ptr, ptr %data.addr, align 8
  %6 = load i32, ptr %b, align 4
  %idx.ext1 = zext i32 %6 to i64
  %add.ptr2 = getelementptr inbounds i8, ptr %5, i64 %idx.ext1
  %7 = load i32, ptr %log2_cache_line_bytes.addr, align 4
  %shl3 = shl i32 1, %7
  %sub = sub nsw i32 %shl3, 1
  %idx.ext4 = sext i32 %sub to i64
  %add.ptr5 = getelementptr inbounds i8, ptr %add.ptr2, i64 %idx.ext4
  call void @llvm.prefetch.p0(ptr %add.ptr5, i32 0, i32 1, i32 1)
  %8 = load i32, ptr %b, align 4
  %9 = load ptr, ptr %byte_offset.addr, align 8
  store i32 %8, ptr %9, align 4
  ret void
}

; Function Attrs: mustprogress nounwind uwtable
define linkonce_odr noundef i64 @_ZNK7rocksdb5Slice4sizeEv(ptr noundef nonnull align 8 dereferenceable(16) %this) #1 comdat align 2 {
entry:
  %this.addr = alloca ptr, align 8
  store ptr %this, ptr %this.addr, align 8
  %this1 = load ptr, ptr %this.addr, align 8
  %size_ = getelementptr inbounds %"class.rocksdb::Slice", ptr %this1, i32 0, i32 1
  %0 = load i64, ptr %size_, align 8
  ret i64 %0
}

; Function Attrs: mustprogress nounwind uwtable
define linkonce_odr noundef ptr @_ZNK7rocksdb5Slice4dataEv(ptr noundef nonnull align 8 dereferenceable(16) %this) #1 comdat align 2 {
entry:
  %this.addr = alloca ptr, align 8
  store ptr %this, ptr %this.addr, align 8
  %this1 = load ptr, ptr %this.addr, align 8
  %data_ = getelementptr inbounds %"class.rocksdb::Slice", ptr %this1, i32 0, i32 0
  %0 = load ptr, ptr %data_, align 8
  ret ptr %0
}

; Function Attrs: mustprogress uwtable
define linkonce_odr { ptr, i64 } @_ZNK7rocksdb16PlainTableReader20GetPrefixFromUserKeyERKNS_5SliceE(ptr noundef nonnull align 16 dereferenceable(2536) %this, ptr noundef nonnull align 8 dereferenceable(16) %user_key) #0 comdat align 2 {
entry:
  %retval = alloca %"class.rocksdb::Slice", align 8
  %this.addr = alloca ptr, align 8
  %user_key.addr = alloca ptr, align 8
  store ptr %this, ptr %this.addr, align 8
  store ptr %user_key, ptr %user_key.addr, align 8
  %this1 = load ptr, ptr %this.addr, align 8
  %call = call noundef zeroext i1 @_ZNK7rocksdb16PlainTableReader16IsTotalOrderModeEv(ptr noundef nonnull align 16 dereferenceable(2536) %this1)
  br i1 %call, label %if.else, label %if.then

if.then:                                          ; preds = %entry
  %prefix_extractor_ = getelementptr inbounds %"class.rocksdb::PlainTableReader", ptr %this1, i32 0, i32 8
  %0 = load ptr, ptr %prefix_extractor_, align 16
  %1 = load ptr, ptr %user_key.addr, align 8
  %vtable = load ptr, ptr %0, align 8
  %vfn = getelementptr inbounds ptr, ptr %vtable, i64 19
  %2 = load ptr, ptr %vfn, align 8
  %call2 = call { ptr, i64 } %2(ptr noundef nonnull align 8 dereferenceable(32) %0, ptr noundef nonnull align 8 dereferenceable(16) %1)
  %3 = getelementptr inbounds { ptr, i64 }, ptr %retval, i32 0, i32 0
  %4 = extractvalue { ptr, i64 } %call2, 0
  store ptr %4, ptr %3, align 8
  %5 = getelementptr inbounds { ptr, i64 }, ptr %retval, i32 0, i32 1
  %6 = extractvalue { ptr, i64 } %call2, 1
  store i64 %6, ptr %5, align 8
  br label %return

if.else:                                          ; preds = %entry
  call void @_ZN7rocksdb5SliceC2Ev(ptr noundef nonnull align 8 dereferenceable(16) %retval)
  br label %return

return:                                           ; preds = %if.else, %if.then
  %7 = load { ptr, i64 }, ptr %retval, align 8
  ret { ptr, i64 } %7
}

; Function Attrs: mustprogress uwtable
define linkonce_odr { ptr, i64 } @_ZN7rocksdb14ExtractUserKeyERKNS_5SliceE(ptr noundef nonnull align 8 dereferenceable(16) %internal_key) #0 comdat {
entry:
  %retval = alloca %"class.rocksdb::Slice", align 8
  %internal_key.addr = alloca ptr, align 8
  store ptr %internal_key, ptr %internal_key.addr, align 8
  %0 = load ptr, ptr %internal_key.addr, align 8
  %call = call noundef ptr @_ZNK7rocksdb5Slice4dataEv(ptr noundef nonnull align 8 dereferenceable(16) %0)
  %1 = load ptr, ptr %internal_key.addr, align 8
  %call1 = call noundef i64 @_ZNK7rocksdb5Slice4sizeEv(ptr noundef nonnull align 8 dereferenceable(16) %1)
  %sub = sub i64 %call1, 8
  call void @_ZN7rocksdb5SliceC2EPKcm(ptr noundef nonnull align 8 dereferenceable(16) %retval, ptr noundef %call, i64 noundef %sub)
  %2 = load { ptr, i64 }, ptr %retval, align 8
  ret { ptr, i64 } %2
}

; Function Attrs: mustprogress uwtable
define linkonce_odr void @_ZN7rocksdb17PlainTableBloomV18PrefetchEj(ptr noundef nonnull align 8 dereferenceable(24) %this, i32 noundef %h) #0 comdat align 2 {
entry:
  %this.addr = alloca ptr, align 8
  %h.addr = alloca i32, align 4
  %ignored = alloca i32, align 4
  store ptr %this, ptr %this.addr, align 8
  store i32 %h, ptr %h.addr, align 4
  %this1 = load ptr, ptr %this.addr, align 8
  %kNumBlocks = getelementptr inbounds %"class.rocksdb::PlainTableBloomV1", ptr %this1, i32 0, i32 1
  %0 = load i32, ptr %kNumBlocks, align 4
  %cmp = icmp ne i32 %0, 0
  br i1 %cmp, label %if.then, label %if.end

if.then:                                          ; preds = %entry
  %1 = load i32, ptr %h.addr, align 4
  %kNumBlocks2 = getelementptr inbounds %"class.rocksdb::PlainTableBloomV1", ptr %this1, i32 0, i32 1
  %2 = load i32, ptr %kNumBlocks2, align 4
  %data_ = getelementptr inbounds %"class.rocksdb::PlainTableBloomV1", ptr %this1, i32 0, i32 3
  %3 = load ptr, ptr %data_, align 8
  call void @_ZN7rocksdb23LegacyLocalityBloomImplILb1EE19PrepareHashMayMatchEjjPKcPji(i32 noundef %1, i32 noundef %2, ptr noundef %3, ptr noundef %ignored, i32 noundef 6)
  br label %if.end

if.end:                                           ; preds = %if.then, %entry
  ret void
}

; Function Attrs: mustprogress uwtable
define linkonce_odr noundef i32 @_ZN7rocksdb12GetSliceHashERKNS_5SliceE(ptr noundef nonnull align 8 dereferenceable(16) %s) #0 comdat {
entry:
  %s.addr = alloca ptr, align 8
  store ptr %s, ptr %s.addr, align 8
  %0 = load ptr, ptr %s.addr, align 8
  %call = call noundef ptr @_ZNK7rocksdb5Slice4dataEv(ptr noundef nonnull align 8 dereferenceable(16) %0)
  %1 = load ptr, ptr %s.addr, align 8
  %call1 = call noundef i64 @_ZNK7rocksdb5Slice4sizeEv(ptr noundef nonnull align 8 dereferenceable(16) %1)
  %call2 = call noundef i32 @_ZN7rocksdb4HashEPKcmj(ptr noundef %call, i64 noundef %call1, i32 noundef 397)
  ret i32 %call2
}

; Function Attrs: mustprogress uwtable
define linkonce_odr { ptr, i64 } @_ZNK7rocksdb16PlainTableReader9GetPrefixERKNS_5SliceE(ptr noundef nonnull align 16 dereferenceable(2536) %this, ptr noundef nonnull align 8 dereferenceable(16) %target) #0 comdat align 2 {
entry:
  %retval = alloca %"class.rocksdb::Slice", align 8
  %this.addr = alloca ptr, align 8
  %target.addr = alloca ptr, align 8
  %ref.tmp = alloca %"class.rocksdb::Slice", align 8
  store ptr %this, ptr %this.addr, align 8
  store ptr %target, ptr %target.addr, align 8
  %this1 = load ptr, ptr %this.addr, align 8
  %0 = load ptr, ptr %target.addr, align 8
  %call = call { ptr, i64 } @_ZN7rocksdb14ExtractUserKeyERKNS_5SliceE(ptr noundef nonnull align 8 dereferenceable(16) %0)
  %1 = getelementptr inbounds { ptr, i64 }, ptr %ref.tmp, i32 0, i32 0
  %2 = extractvalue { ptr, i64 } %call, 0
  store ptr %2, ptr %1, align 8
  %3 = getelementptr inbounds { ptr, i64 }, ptr %ref.tmp, i32 0, i32 1
  %4 = extractvalue { ptr, i64 } %call, 1
  store i64 %4, ptr %3, align 8
  %call2 = call { ptr, i64 } @_ZNK7rocksdb16PlainTableReader20GetPrefixFromUserKeyERKNS_5SliceE(ptr noundef nonnull align 16 dereferenceable(2536) %this1, ptr noundef nonnull align 8 dereferenceable(16) %ref.tmp)
  %5 = getelementptr inbounds { ptr, i64 }, ptr %retval, i32 0, i32 0
  %6 = extractvalue { ptr, i64 } %call2, 0
  store ptr %6, ptr %5, align 8
  %7 = getelementptr inbounds { ptr, i64 }, ptr %retval, i32 0, i32 1
  %8 = extractvalue { ptr, i64 } %call2, 1
  store i64 %8, ptr %7, align 8
  %9 = load { ptr, i64 }, ptr %retval, align 8
  ret { ptr, i64 } %9
}

; Function Attrs: mustprogress uwtable
define void @_ZN7rocksdb16PlainTableReader7PrepareERKNS_5SliceE(ptr noundef nonnull align 16 dereferenceable(2536) %this, ptr noundef nonnull align 8 dereferenceable(16) %target) unnamed_addr #0 align 2 {
entry:
  %this.addr = alloca ptr, align 8
  %target.addr = alloca ptr, align 8
  %prefix_hash = alloca i32, align 4
  %ref.tmp = alloca %"class.rocksdb::Slice", align 8
  store ptr %this, ptr %this.addr, align 8
  store ptr %target, ptr %target.addr, align 8
  %this1 = load ptr, ptr %this.addr, align 8
  %enable_bloom_ = getelementptr inbounds %"class.rocksdb::PlainTableReader", ptr %this1, i32 0, i32 9
  %0 = load i8, ptr %enable_bloom_, align 8
  %tobool = trunc i8 %0 to i1
  br i1 %tobool, label %if.then, label %if.end

if.then:                                          ; preds = %entry
  %1 = load ptr, ptr %target.addr, align 8
  %call = call { ptr, i64 } @_ZNK7rocksdb16PlainTableReader9GetPrefixERKNS_5SliceE(ptr noundef nonnull align 16 dereferenceable(2536) %this1, ptr noundef nonnull align 8 dereferenceable(16) %1)
  %2 = getelementptr inbounds { ptr, i64 }, ptr %ref.tmp, i32 0, i32 0
  %3 = extractvalue { ptr, i64 } %call, 0
  store ptr %3, ptr %2, align 8
  %4 = getelementptr inbounds { ptr, i64 }, ptr %ref.tmp, i32 0, i32 1
  %5 = extractvalue { ptr, i64 } %call, 1
  store i64 %5, ptr %4, align 8
  %call2 = call noundef i32 @_ZN7rocksdb12GetSliceHashERKNS_5SliceE(ptr noundef nonnull align 8 dereferenceable(16) %ref.tmp)
  store i32 %call2, ptr %prefix_hash, align 4
  %bloom_ = getelementptr inbounds %"class.rocksdb::PlainTableReader", ptr %this1, i32 0, i32 10
  %6 = load i32, ptr %prefix_hash, align 4
  call void @_ZN7rocksdb17PlainTableBloomV18PrefetchEj(ptr noundef nonnull align 8 dereferenceable(24) %bloom_, i32 noundef %6)
  br label %if.end

if.end:                                           ; preds = %if.then, %entry
  ret void
}