; Function Attrs: mustprogress uwtable
define void @_ZN7rocksdb16PlainTableReader7PrepareERKNS_5SliceE(ptr nocapture noundef nonnull readonly align 16 dereferenceable(2536) %this, ptr nocapture noundef nonnull readonly align 8 dereferenceable(16) %target) unnamed_addr #3 align 2 {
entry:
  %ref.tmp.i = alloca %"class.rocksdb::Slice", align 8
  %enable_bloom_ = getelementptr inbounds i8, ptr %this, i64 104
  %0 = load i8, ptr %enable_bloom_, align 8
  %1 = and i8 %0, 1
  %tobool.not = icmp eq i8 %1, 0
  br i1 %tobool.not, label %if.end, label %if.then

if.then:                                          ; preds = %entry
  call void @llvm.lifetime.start.p0(i64 16, ptr nonnull %ref.tmp.i)
  %2 = load ptr, ptr %target, align 8
  %size_.i.i.i = getelementptr inbounds i8, ptr %target, i64 8
  %3 = load i64, ptr %size_.i.i.i, align 8
  %sub.i.i = add i64 %3, -8
  store ptr %2, ptr %ref.tmp.i, align 8
  %4 = getelementptr inbounds i8, ptr %ref.tmp.i, i64 8
  store i64 %sub.i.i, ptr %4, align 8
  %prefix_extractor_.i.i.i = getelementptr inbounds i8, ptr %this, i64 96
  %5 = load ptr, ptr %prefix_extractor_.i.i.i, align 16
  %cmp.i.i.i = icmp eq ptr %5, null
  br i1 %cmp.i.i.i, label %_ZNK7rocksdb16PlainTableReader9GetPrefixERKNS_5SliceE.exit, label %if.then.i.i

if.then.i.i:                                      ; preds = %if.then
  %vtable.i.i = load ptr, ptr %5, align 8
  %vfn.i.i = getelementptr inbounds i8, ptr %vtable.i.i, i64 152
  %6 = load ptr, ptr %vfn.i.i, align 8
  %call2.i.i = call { ptr, i64 } %6(ptr noundef nonnull align 8 dereferenceable(32) %5, ptr noundef nonnull align 8 dereferenceable(16) %ref.tmp.i)
  %7 = extractvalue { ptr, i64 } %call2.i.i, 0
  %8 = extractvalue { ptr, i64 } %call2.i.i, 1
  br label %_ZNK7rocksdb16PlainTableReader9GetPrefixERKNS_5SliceE.exit

_ZNK7rocksdb16PlainTableReader9GetPrefixERKNS_5SliceE.exit: ; preds = %if.then, %if.then.i.i
  %retval.sroa.3.0.i.i = phi i64 [ %8, %if.then.i.i ], [ 0, %if.then ]
  %retval.sroa.0.0.i.i = phi ptr [ %7, %if.then.i.i ], [ @.str.15, %if.then ]
  call void @llvm.lifetime.end.p0(i64 16, ptr nonnull %ref.tmp.i)
  %call2.i = call noundef i32 @_ZN7rocksdb4HashEPKcmj(ptr noundef %retval.sroa.0.0.i.i, i64 noundef %retval.sroa.3.0.i.i, i32 noundef 397)
  %kNumBlocks.i = getelementptr inbounds i8, ptr %this, i64 116
  %9 = load i32, ptr %kNumBlocks.i, align 4
  %cmp.not.i = icmp eq i32 %9, 0
  br i1 %cmp.not.i, label %if.end, label %if.then.i

if.then.i:                                        ; preds = %_ZNK7rocksdb16PlainTableReader9GetPrefixERKNS_5SliceE.exit
  %data_.i = getelementptr inbounds i8, ptr %this, i64 128
  %10 = load ptr, ptr %data_.i, align 16
  %or.i.i.i = call i32 @llvm.fshl.i32(i32 %call2.i, i32 %call2.i, i32 21)
  %rem.i.i.i = urem i32 %or.i.i.i, %9
  %shl.i.i = shl i32 %rem.i.i.i, 6
  %idx.ext.i.i = zext i32 %shl.i.i to i64
  %add.ptr.i.i = getelementptr inbounds i8, ptr %10, i64 %idx.ext.i.i
  call void @llvm.prefetch.p0(ptr %add.ptr.i.i, i32 0, i32 1, i32 1)
  %add.ptr5.i.i = getelementptr inbounds i8, ptr %add.ptr.i.i, i64 63
  call void @llvm.prefetch.p0(ptr nonnull %add.ptr5.i.i, i32 0, i32 1, i32 1)
  br label %if.end

if.end:                                           ; preds = %if.then.i, %_ZNK7rocksdb16PlainTableReader9GetPrefixERKNS_5SliceE.exit, %entry
  ret void
}